target datalayout = "e-m:e-p270:32:32-p271:32:32-p272:64:64-i64:64-i128:128-f80:128-n8:16:32:64-S128"
target triple = "x86_64-pc-linux-gnu"

%struct.expert_field = type { i32, i32 }
%struct._snmp_usm_params_t = type { i32, i32, i32, i32, i32, i32, ptr, ptr, ptr, ptr, ptr, ptr, ptr, i32 }
%struct.nstime_t = type { i64, i32 }
%struct._packet_info = type { ptr, ptr, i32, i32, %struct.nstime_t, %struct.nstime_t, %struct.nstime_t, i32, ptr, ptr, ptr, ptr, %struct._address, %struct._address, %struct._address, %struct._address, %struct._address, %struct._address, i32, ptr, i32, %struct.anon, i32, i32, i32, i32, ptr, i32, ptr, ptr, i16, i16, i32, i32, i16, i32, i32, ptr, ptr, ptr, i8, i8, i16, i16, i16, i32, i16, i16, ptr, ptr, ptr, ptr, ptr, i32 }
%struct._address = type { i32, i32, ptr, ptr }
%struct.anon = type { i8, [3 x i8] }
%struct._asn1_ctx_t = type { i32, i32, i8, ptr, ptr, ptr, ptr, ptr, %struct.anon.0, %struct.anon.3, %struct.anon.4, ptr }
%struct.anon.0 = type { i32, i8, i8, i8, ptr, ptr, i32, i32, ptr, ptr, ptr, %union.anon }
%union.anon = type { %struct.anon.1 }
%struct.anon.1 = type { ptr }
%struct.anon.3 = type { ptr, ptr, ptr }
%struct.anon.4 = type { i32, i8, ptr, i32, i32, ptr, ptr, ptr, %union.anon.5 }
%union.anon.5 = type { %struct.anon.6 }
%struct.anon.6 = type { ptr }
%struct._snmp_ue_assoc_t = type { %struct._snmp_user_t, %struct.snmp_engine_id_t, i32, i32, ptr }
%struct._snmp_user_t = type { %struct._snmp_usm_key, i32, %struct._snmp_usm_key, %struct._snmp_usm_key, ptr, %struct._snmp_usm_key, %struct._snmp_usm_key }
%struct._snmp_usm_key = type { ptr, i32 }
%struct.snmp_engine_id_t = type { ptr, i32 }

@usm_p = internal global %struct._snmp_usm_params_t zeroinitializer, align 8
@hf_snmp_decryptedPDU = internal global i32 0, align 4
@.str.43 = private unnamed_addr constant [20 x i8] c"Decrypted ScopedPDU\00", align 1
@hf_snmp_encryptedPDU = internal global i32 0, align 4
@ett_encryptedPDU = internal global i32 0, align 4
@ett_decrypted = internal global i32 0, align 4
@ett_snmp_ScopedPDU = internal global i32 0, align 4
@ei_snmp_failed_decrypted_data_pdu = internal global %struct.expert_field zeroinitializer, align 4
@ei_snmp_decrypted_data_bad_formatted = internal global %struct.expert_field zeroinitializer, align 4
@.str.414 = private unnamed_addr constant [35 x i8] c"Failed to decrypt encryptedPDU: %s\00", align 1
@.str.415 = private unnamed_addr constant [32 x i8] c"encryptedPDU: Failed to decrypt\00", align 1
@.str.416 = private unnamed_addr constant [55 x i8] c"encryptedPDU: Decrypted data not formatted as expected\00", align 1
@.str.417 = private unnamed_addr constant [30 x i8] c"encryptedPDU: privKey Unknown\00", align 1

; Function Attrs: nounwind uwtable
define internal i32 @dissect_snmp_ScopedPDU(i1 noundef zeroext %0, ptr noundef %1, i32 noundef %2, ptr noundef %3, ptr noundef %4, i32 noundef %5) #0 {
  %7 = alloca i8, align 1
  %8 = alloca ptr, align 8
  %9 = alloca i32, align 4
  %10 = alloca ptr, align 8
  %11 = alloca ptr, align 8
  %12 = alloca i32, align 4
  %13 = zext i1 %0 to i8
  store i8 %13, ptr %7, align 1
  store ptr %1, ptr %8, align 8
  store i32 %2, ptr %9, align 4
  store ptr %3, ptr %10, align 8
  store ptr %4, ptr %11, align 8
  store i32 %5, ptr %12, align 4
  %14 = load i8, ptr %7, align 1
  %15 = trunc i8 %14 to i1
  %16 = load ptr, ptr %10, align 8
  %17 = load ptr, ptr %11, align 8
  %18 = load ptr, ptr %8, align 8
  %19 = load i32, ptr %9, align 4
  %20 = load i32, ptr %12, align 4
  %21 = load i32, ptr @ett_snmp_ScopedPDU, align 4
  %22 = call i32 @dissect_ber_sequence(i1 noundef zeroext %15, ptr noundef %16, ptr noundef %17, ptr noundef %18, i32 noundef %19, ptr noundef @ScopedPDU_sequence, i32 noundef %20, i32 noundef %21)
  store i32 %22, ptr %9, align 4
  %23 = load i32, ptr %9, align 4
  ret i32 %23
}

; Function Attrs: nounwind uwtable
define internal i32 @check_ScopedPdu(ptr noundef %0) #0 {
  %2 = alloca i32, align 4
  %3 = alloca ptr, align 8
  %4 = alloca i32, align 4
  %5 = alloca i8, align 1
  %6 = alloca i8, align 1
  %7 = alloca i32, align 4
  %8 = alloca i32, align 4
  %9 = alloca i32, align 4
  %10 = alloca i32, align 4
  store ptr %0, ptr %3, align 8
  %11 = load ptr, ptr %3, align 8
  %12 = call i32 @get_ber_identifier(ptr noundef %11, i32 noundef 0, ptr noundef %5, ptr noundef %6, ptr noundef %7)
  store i32 %12, ptr %4, align 4
  %13 = load ptr, ptr %3, align 8
  %14 = load i32, ptr %4, align 4
  %15 = call i32 @get_ber_length(ptr noundef %13, i32 noundef %14, ptr noundef null, ptr noundef null)
  store i32 %15, ptr %4, align 4
  %16 = load i8, ptr %5, align 1
  %17 = sext i8 %16 to i32
  %18 = icmp ne i32 %17, 1
  br i1 %18, label %19, label %33

19:                                               ; preds = %1
  %20 = load i8, ptr %5, align 1
  %21 = sext i8 %20 to i32
  %22 = icmp ne i32 %21, 3
  br i1 %22, label %23, label %33

23:                                               ; preds = %19
  %24 = load i8, ptr %6, align 1
  %25 = trunc i8 %24 to i1
  br i1 %25, label %26, label %34

26:                                               ; preds = %23
  %27 = load i8, ptr %5, align 1
  %28 = sext i8 %27 to i32
  %29 = icmp ne i32 %28, 0
  br i1 %29, label %34, label %30

30:                                               ; preds = %26
  %31 = load i32, ptr %7, align 4
  %32 = icmp ne i32 %31, 10
  br i1 %32, label %34, label %33

33:                                               ; preds = %30, %19, %1
  store i32 0, ptr %2, align 4
  br label %87

34:                                               ; preds = %30, %26, %23
  %35 = load ptr, ptr %3, align 8
  %36 = load i32, ptr %4, align 4
  %37 = call zeroext i8 @tvb_get_guint8(ptr noundef %35, i32 noundef %36)
  %38 = zext i8 %37 to i32
  %39 = icmp eq i32 %38, 0
  br i1 %39, label %40, label %48

40:                                               ; preds = %34
  %41 = load ptr, ptr %3, align 8
  %42 = load i32, ptr %4, align 4
  %43 = add i32 %42, 1
  %44 = call zeroext i8 @tvb_get_guint8(ptr noundef %41, i32 noundef %43)
  %45 = zext i8 %44 to i32
  %46 = icmp eq i32 %45, 0
  br i1 %46, label %47, label %48

47:                                               ; preds = %40
  store i32 1, ptr %2, align 4
  br label %87

48:                                               ; preds = %40, %34
  %49 = load i32, ptr %4, align 4
  store i32 %49, ptr %8, align 4
  %50 = load ptr, ptr %3, align 8
  %51 = load i32, ptr %4, align 4
  %52 = call i32 @get_ber_identifier(ptr noundef %50, i32 noundef %51, ptr noundef %5, ptr noundef %6, ptr noundef %7)
  store i32 %52, ptr %4, align 4
  %53 = load ptr, ptr %3, align 8
  %54 = load i32, ptr %4, align 4
  %55 = call i32 @get_ber_length(ptr noundef %53, i32 noundef %54, ptr noundef %10, ptr noundef null)
  store i32 %55, ptr %4, align 4
  %56 = load i32, ptr %4, align 4
  %57 = load i32, ptr %10, align 4
  %58 = add i32 %56, %57
  store i32 %58, ptr %9, align 4
  %59 = load i32, ptr %9, align 4
  %60 = load i32, ptr %8, align 4
  %61 = icmp sle i32 %59, %60
  br i1 %61, label %62, label %63

62:                                               ; preds = %48
  store i32 0, ptr %2, align 4
  br label %87

63:                                               ; preds = %48
  %64 = load i8, ptr %5, align 1
  %65 = sext i8 %64 to i32
  %66 = icmp ne i32 %65, 1
  br i1 %66, label %67, label %86

67:                                               ; preds = %63
  %68 = load i8, ptr %5, align 1
  %69 = sext i8 %68 to i32
  %70 = icmp ne i32 %69, 3
  br i1 %70, label %71, label %86

71:                                               ; preds = %67
  %72 = load i8, ptr %5, align 1
  %73 = sext i8 %72 to i32
  %74 = icmp ne i32 %73, 0
  br i1 %74, label %84, label %75

75:                                               ; preds = %71
  %76 = load i32, ptr %7, align 4
  %77 = icmp slt i32 %76, 18
  br i1 %77, label %78, label %85

78:                                               ; preds = %75
  %79 = load i32, ptr %7, align 4
  %80 = icmp ne i32 %79, 4
  br i1 %80, label %81, label %85

81:                                               ; preds = %78
  %82 = load i32, ptr %7, align 4
  %83 = icmp ne i32 %82, 12
  br i1 %83, label %84, label %85

84:                                               ; preds = %81, %71
  store i32 0, ptr %2, align 4
  br label %87

85:                                               ; preds = %81, %78, %75
  br label %86

86:                                               ; preds = %85, %67, %63
  store i32 1, ptr %2, align 4
  br label %87

87:                                               ; preds = %86, %84, %62, %47, %33
  %88 = load i32, ptr %2, align 4
  ret i32 %88
}

; Function Attrs: nounwind uwtable
define internal i32 @dissect_snmp_T_encryptedPDU(i1 noundef zeroext %0, ptr noundef %1, i32 noundef %2, ptr noundef %3, ptr noundef %4, i32 noundef %5) #0 {
  %7 = alloca i32, align 4
  %8 = alloca i8, align 1
  %9 = alloca ptr, align 8
  %10 = alloca i32, align 4
  %11 = alloca ptr, align 8
  %12 = alloca ptr, align 8
  %13 = alloca i32, align 4
  %14 = alloca ptr, align 8
  %15 = alloca ptr, align 8
  %16 = alloca ptr, align 8
  %17 = alloca ptr, align 8
  %18 = alloca ptr, align 8
  %19 = alloca ptr, align 8
  %20 = zext i1 %0 to i8
  store i8 %20, ptr %8, align 1
  store ptr %1, ptr %9, align 8
  store i32 %2, ptr %10, align 4
  store ptr %3, ptr %11, align 8
  store ptr %4, ptr %12, align 8
  store i32 %5, ptr %13, align 4
  %21 = load ptr, ptr %11, align 8
  %22 = load ptr, ptr %12, align 8
  %23 = load ptr, ptr %9, align 8
  %24 = load i32, ptr %10, align 4
  %25 = load i32, ptr @hf_snmp_encryptedPDU, align 4
  %26 = call i32 @dissect_ber_octet_string(i1 noundef zeroext false, ptr noundef %21, ptr noundef %22, ptr noundef %23, i32 noundef %24, i32 noundef %25, ptr noundef %14)
  store i32 %26, ptr %10, align 4
  %27 = getelementptr inbounds %struct._snmp_usm_params_t, ptr @usm_p, i32 0, i32 1
  %28 = load i32, ptr %27, align 4
  %29 = icmp ne i32 %28, 0
  br i1 %29, label %30, label %110

30:                                               ; preds = %6
  %31 = load ptr, ptr %14, align 8
  %32 = icmp ne ptr %31, null
  br i1 %32, label %33, label %110

33:                                               ; preds = %30
  %34 = getelementptr inbounds %struct._snmp_usm_params_t, ptr @usm_p, i32 0, i32 12
  %35 = load ptr, ptr %34, align 8
  %36 = icmp ne ptr %35, null
  br i1 %36, label %37, label %110

37:                                               ; preds = %33
  %38 = getelementptr inbounds %struct._snmp_usm_params_t, ptr @usm_p, i32 0, i32 12
  %39 = load ptr, ptr %38, align 8
  %40 = getelementptr inbounds %struct._snmp_ue_assoc_t, ptr %39, i32 0, i32 0
  %41 = getelementptr inbounds %struct._snmp_user_t, ptr %40, i32 0, i32 4
  %42 = load ptr, ptr %41, align 8
  %43 = icmp ne ptr %42, null
  br i1 %43, label %44, label %110

44:                                               ; preds = %37
  store ptr null, ptr %15, align 8
  %45 = load ptr, ptr %11, align 8
  %46 = getelementptr inbounds %struct._asn1_ctx_t, ptr %45, i32 0, i32 4
  %47 = load ptr, ptr %46, align 8
  %48 = load i32, ptr @ett_encryptedPDU, align 4
  %49 = call ptr @proto_item_add_subtree(ptr noundef %47, i32 noundef %48)
  store ptr %49, ptr %16, align 8
  %50 = getelementptr inbounds %struct._snmp_usm_params_t, ptr @usm_p, i32 0, i32 12
  %51 = load ptr, ptr %50, align 8
  %52 = getelementptr inbounds %struct._snmp_ue_assoc_t, ptr %51, i32 0, i32 0
  %53 = getelementptr inbounds %struct._snmp_user_t, ptr %52, i32 0, i32 4
  %54 = load ptr, ptr %53, align 8
  %55 = load ptr, ptr %14, align 8
  %56 = load ptr, ptr %11, align 8
  %57 = getelementptr inbounds %struct._asn1_ctx_t, ptr %56, i32 0, i32 3
  %58 = load ptr, ptr %57, align 8
  %59 = call ptr %54(ptr noundef @usm_p, ptr noundef %55, ptr noundef %58, ptr noundef %15)
  store ptr %59, ptr %17, align 8
  %60 = load ptr, ptr %17, align 8
  %61 = icmp ne ptr %60, null
  br i1 %61, label %76, label %62

62:                                               ; preds = %44
  %63 = load ptr, ptr %16, align 8
  %64 = load ptr, ptr %11, align 8
  %65 = getelementptr inbounds %struct._asn1_ctx_t, ptr %64, i32 0, i32 3
  %66 = load ptr, ptr %65, align 8
  %67 = load ptr, ptr %14, align 8
  %68 = load ptr, ptr %15, align 8
  %69 = call ptr (ptr, ptr, ptr, ptr, i32, i32, ptr, ...) @proto_tree_add_expert_format(ptr noundef %63, ptr noundef %66, ptr noundef @ei_snmp_failed_decrypted_data_pdu, ptr noundef %67, i32 noundef 0, i32 noundef -1, ptr noundef @.str.414, ptr noundef %68)
  %70 = load ptr, ptr %11, align 8
  %71 = getelementptr inbounds %struct._asn1_ctx_t, ptr %70, i32 0, i32 3
  %72 = load ptr, ptr %71, align 8
  %73 = getelementptr inbounds %struct._packet_info, ptr %72, i32 0, i32 1
  %74 = load ptr, ptr %73, align 8
  call void @col_set_str(ptr noundef %74, i32 noundef 25, ptr noundef @.str.415)
  %75 = load i32, ptr %10, align 4
  store i32 %75, ptr %7, align 4
  br label %118

76:                                               ; preds = %44
  %77 = load ptr, ptr %17, align 8
  %78 = call i32 @check_ScopedPdu(ptr noundef %77)
  %79 = icmp ne i32 %78, 0
  br i1 %79, label %93, label %80

80:                                               ; preds = %76
  %81 = load ptr, ptr %16, align 8
  %82 = load ptr, ptr %11, align 8
  %83 = getelementptr inbounds %struct._asn1_ctx_t, ptr %82, i32 0, i32 3
  %84 = load ptr, ptr %83, align 8
  %85 = load ptr, ptr %17, align 8
  %86 = call ptr @proto_tree_add_expert(ptr noundef %81, ptr noundef %84, ptr noundef @ei_snmp_decrypted_data_bad_formatted, ptr noundef %85, i32 noundef 0, i32 noundef -1)
  %87 = load ptr, ptr %11, align 8
  %88 = getelementptr inbounds %struct._asn1_ctx_t, ptr %87, i32 0, i32 3
  %89 = load ptr, ptr %88, align 8
  %90 = getelementptr inbounds %struct._packet_info, ptr %89, i32 0, i32 1
  %91 = load ptr, ptr %90, align 8
  call void @col_set_str(ptr noundef %91, i32 noundef 25, ptr noundef @.str.416)
  %92 = load i32, ptr %10, align 4
  store i32 %92, ptr %7, align 4
  br label %118

93:                                               ; preds = %76
  %94 = load ptr, ptr %11, align 8
  %95 = getelementptr inbounds %struct._asn1_ctx_t, ptr %94, i32 0, i32 3
  %96 = load ptr, ptr %95, align 8
  %97 = load ptr, ptr %17, align 8
  call void @add_new_data_source(ptr noundef %96, ptr noundef %97, ptr noundef @.str.43)
  %98 = load ptr, ptr %16, align 8
  %99 = load i32, ptr @hf_snmp_decryptedPDU, align 4
  %100 = load ptr, ptr %17, align 8
  %101 = call ptr @proto_tree_add_item(ptr noundef %98, i32 noundef %99, ptr noundef %100, i32 noundef 0, i32 noundef -1, i32 noundef 0)
  store ptr %101, ptr %18, align 8
  %102 = load ptr, ptr %18, align 8
  %103 = load i32, ptr @ett_decrypted, align 4
  %104 = call ptr @proto_item_add_subtree(ptr noundef %102, i32 noundef %103)
  store ptr %104, ptr %19, align 8
  %105 = load ptr, ptr %17, align 8
  %106 = load ptr, ptr %11, align 8
  %107 = load ptr, ptr %19, align 8
  %108 = call i32 @dissect_snmp_ScopedPDU(i1 noundef zeroext false, ptr noundef %105, i32 noundef 0, ptr noundef %106, ptr noundef %107, i32 noundef -1)
  br label %109

109:                                              ; preds = %93
  br label %116

110:                                              ; preds = %37, %33, %30, %6
  %111 = load ptr, ptr %11, align 8
  %112 = getelementptr inbounds %struct._asn1_ctx_t, ptr %111, i32 0, i32 3
  %113 = load ptr, ptr %112, align 8
  %114 = getelementptr inbounds %struct._packet_info, ptr %113, i32 0, i32 1
  %115 = load ptr, ptr %114, align 8
  call void @col_set_str(ptr noundef %115, i32 noundef 25, ptr noundef @.str.417)
  br label %116

116:                                              ; preds = %110, %109
  %117 = load i32, ptr %10, align 4
  store i32 %117, ptr %7, align 4
  br label %118

118:                                              ; preds = %116, %80, %62
  %119 = load i32, ptr %7, align 4
  ret i32 %119
}