; Function Attrs: nounwind uwtable
define internal i32 @dissect_snmp_T_encryptedPDU(i1 zeroext %0, ptr noundef %1, i32 noundef %2, ptr noundef %3, ptr noundef %4, i32 %5) #0 {
  %7 = alloca i8, align 1
  %8 = alloca i8, align 1
  %9 = alloca i32, align 4
  %10 = alloca i32, align 4
  %11 = alloca ptr, align 8
  %12 = alloca ptr, align 8
  %13 = load i32, ptr @hf_snmp_encryptedPDU, align 4
  %14 = call i32 @dissect_ber_octet_string(i1 noundef zeroext false, ptr noundef %3, ptr noundef %4, ptr noundef %1, i32 noundef %2, i32 noundef %13, ptr noundef nonnull %11) #11
  %15 = load i32, ptr getelementptr inbounds nuw (i8, ptr @usm_p, i64 4), align 4
  %16 = icmp ne i32 %15, 0
  %17 = load ptr, ptr %11, align 8
  %18 = icmp ne ptr %17, null
  %or.cond = select i1 %16, i1 %18, i1 false
  %19 = load ptr, ptr getelementptr inbounds nuw (i8, ptr @usm_p, i64 72), align 8
  %20 = icmp ne ptr %19, null
  %or.cond4 = select i1 %or.cond, i1 %20, i1 false
  br i1 %or.cond4, label %21, label %90

21:                                               ; preds = %6
  %22 = getelementptr inbounds nuw i8, ptr %19, i64 56
  %23 = load ptr, ptr %22, align 8
  %.not = icmp eq ptr %23, null
  br i1 %.not, label %90, label %24

24:                                               ; preds = %21
  store ptr null, ptr %12, align 8
  %25 = getelementptr inbounds nuw i8, ptr %3, i64 24
  %26 = load ptr, ptr %25, align 8
  %27 = load i32, ptr @ett_encryptedPDU, align 4
  %28 = call ptr @proto_item_add_subtree(ptr noundef %26, i32 noundef %27) #11
  %29 = load ptr, ptr getelementptr inbounds nuw (i8, ptr @usm_p, i64 72), align 8
  %30 = getelementptr inbounds nuw i8, ptr %29, i64 56
  %31 = load ptr, ptr %30, align 8
  %32 = load ptr, ptr %11, align 8
  %33 = getelementptr inbounds nuw i8, ptr %3, i64 16
  %34 = load ptr, ptr %33, align 8
  %35 = call ptr %31(ptr noundef nonnull @usm_p, ptr noundef %32, ptr noundef %34, ptr noundef nonnull %12) #11
  %.not32 = icmp eq ptr %35, null
  br i1 %.not32, label %36, label %44

36:                                               ; preds = %24
  %37 = load ptr, ptr %33, align 8
  %38 = load ptr, ptr %11, align 8
  %39 = load ptr, ptr %12, align 8
  %40 = call ptr (ptr, ptr, ptr, ptr, i32, i32, ptr, ...) @proto_tree_add_expert_format(ptr noundef %28, ptr noundef %37, ptr noundef nonnull @ei_snmp_failed_decrypted_data_pdu, ptr noundef %38, i32 noundef 0, i32 noundef -1, ptr noundef nonnull @.str.414, ptr noundef %39) #11
  %41 = load ptr, ptr %33, align 8
  %42 = getelementptr inbounds nuw i8, ptr %41, i64 8
  %43 = load ptr, ptr %42, align 8
  call void @col_set_str(ptr noundef %43, i32 noundef 25, ptr noundef nonnull @.str.415) #11
  br label %95

44:                                               ; preds = %24
  call void @llvm.lifetime.start.p0(i64 1, ptr nonnull %7)
  call void @llvm.lifetime.start.p0(i64 1, ptr nonnull %8)
  call void @llvm.lifetime.start.p0(i64 4, ptr nonnull %9)
  call void @llvm.lifetime.start.p0(i64 4, ptr nonnull %10)
  %45 = call i32 @get_ber_identifier(ptr noundef nonnull %35, i32 noundef 0, ptr noundef nonnull %7, ptr noundef nonnull %8, ptr noundef nonnull %9) #11
  %46 = call i32 @get_ber_length(ptr noundef nonnull %35, i32 noundef %45, ptr noundef null, ptr noundef null) #11
  %47 = load i8, ptr %7, align 1
  %48 = and i8 %47, -3
  %or.cond.not.i = icmp eq i8 %48, 1
  br i1 %or.cond.not.i, label %76, label %49

49:                                               ; preds = %44
  %50 = load i8, ptr %8, align 1
  %51 = trunc i8 %50 to i1
  %.not.i = xor i1 %51, true
  %52 = icmp ne i8 %47, 0
  %or.cond5.i = or i1 %52, %.not.i
  %53 = load i32, ptr %9, align 4
  %54 = icmp ne i32 %53, 10
  %or.cond7.i = select i1 %or.cond5.i, i1 true, i1 %54
  br i1 %or.cond7.i, label %55, label %76

55:                                               ; preds = %49
  %56 = call zeroext i8 @tvb_get_guint8(ptr noundef nonnull %35, i32 noundef %46) #11
  %57 = icmp eq i8 %56, 0
  br i1 %57, label %58, label %62

58:                                               ; preds = %55
  %59 = add i32 %46, 1
  %60 = call zeroext i8 @tvb_get_guint8(ptr noundef nonnull %35, i32 noundef %59) #11
  %61 = icmp eq i8 %60, 0
  br i1 %61, label %82, label %62

62:                                               ; preds = %58, %55
  %63 = call i32 @get_ber_identifier(ptr noundef nonnull %35, i32 noundef %46, ptr noundef nonnull %7, ptr noundef nonnull %8, ptr noundef nonnull %9) #11
  %64 = call i32 @get_ber_length(ptr noundef nonnull %35, i32 noundef %63, ptr noundef nonnull %10, ptr noundef null) #11
  %65 = load i32, ptr %10, align 4
  %66 = add i32 %65, %64
  %.not31.i = icmp sgt i32 %66, %46
  br i1 %.not31.i, label %67, label %76

67:                                               ; preds = %62
  %68 = load i8, ptr %7, align 1
  %69 = and i8 %68, -3
  %or.cond10.not.i = icmp eq i8 %69, 1
  br i1 %or.cond10.not.i, label %82, label %70

70:                                               ; preds = %67
  %.not32.i = icmp eq i8 %68, 0
  br i1 %.not32.i, label %71, label %76

71:                                               ; preds = %70
  %72 = load i32, ptr %9, align 4
  %73 = icmp slt i32 %72, 18
  %74 = and i32 %72, -9
  %75 = icmp ne i32 %74, 4
  %or.cond14.i = and i1 %73, %75
  br i1 %or.cond14.i, label %76, label %82

76:                                               ; preds = %49, %44, %62, %71, %70
  call void @llvm.lifetime.end.p0(i64 1, ptr nonnull %7)
  call void @llvm.lifetime.end.p0(i64 1, ptr nonnull %8)
  call void @llvm.lifetime.end.p0(i64 4, ptr nonnull %9)
  call void @llvm.lifetime.end.p0(i64 4, ptr nonnull %10)
  %77 = load ptr, ptr %33, align 8
  %78 = call ptr @proto_tree_add_expert(ptr noundef %28, ptr noundef %77, ptr noundef nonnull @ei_snmp_decrypted_data_bad_formatted, ptr noundef nonnull %35, i32 noundef 0, i32 noundef -1) #11
  %79 = load ptr, ptr %33, align 8
  %80 = getelementptr inbounds nuw i8, ptr %79, i64 8
  %81 = load ptr, ptr %80, align 8
  call void @col_set_str(ptr noundef %81, i32 noundef 25, ptr noundef nonnull @.str.416) #11
  br label %95

82:                                               ; preds = %67, %71, %58
  call void @llvm.lifetime.end.p0(i64 1, ptr nonnull %7)
  call void @llvm.lifetime.end.p0(i64 1, ptr nonnull %8)
  call void @llvm.lifetime.end.p0(i64 4, ptr nonnull %9)
  call void @llvm.lifetime.end.p0(i64 4, ptr nonnull %10)
  %83 = load ptr, ptr %33, align 8
  call void @add_new_data_source(ptr noundef %83, ptr noundef nonnull %35, ptr noundef nonnull @.str.43) #11
  %84 = load i32, ptr @hf_snmp_decryptedPDU, align 4
  %85 = call ptr @proto_tree_add_item(ptr noundef %28, i32 noundef %84, ptr noundef nonnull %35, i32 noundef 0, i32 noundef -1, i32 noundef 0) #11
  %86 = load i32, ptr @ett_decrypted, align 4
  %87 = call ptr @proto_item_add_subtree(ptr noundef %85, i32 noundef %86) #11
  %88 = load i32, ptr @ett_snmp_ScopedPDU, align 4
  %89 = call i32 @dissect_ber_sequence(i1 noundef zeroext false, ptr noundef nonnull %3, ptr noundef %87, ptr noundef nonnull %35, i32 noundef 0, ptr noundef nonnull @ScopedPDU_sequence, i32 noundef -1, i32 noundef %88) #11
  br label %95

90:                                               ; preds = %21, %6
  %91 = getelementptr inbounds nuw i8, ptr %3, i64 16
  %92 = load ptr, ptr %91, align 8
  %93 = getelementptr inbounds nuw i8, ptr %92, i64 8
  %94 = load ptr, ptr %93, align 8
  call void @col_set_str(ptr noundef %94, i32 noundef 25, ptr noundef nonnull @.str.417) #11
  br label %95

95:                                               ; preds = %82, %90, %76, %36
  ret i32 %14
}